; Function Attrs: mustprogress uwtable
define void @_ZN7rocksdb13PosixMmapFile5MsyncEv(ptr noalias nocapture writeonly sret(%"class.rocksdb::IOStatus") align 8 %agg.result, ptr noundef nonnull align 8 dereferenceable(138) %this) local_unnamed_addr #0 align 2 personality ptr @__gxx_personality_v0 {
entry:
  %ref.tmp = alloca %"class.std::__cxx11::basic_string", align 8
  %ref.tmp16 = alloca %"class.std::allocator", align 1
  %dst_ = getelementptr inbounds i8, ptr %this, i64 112
  %0 = load ptr, ptr %dst_, align 8
  %last_sync_ = getelementptr inbounds i8, ptr %this, i64 120
  %1 = load ptr, ptr %last_sync_, align 8
  %cmp = icmp eq ptr %0, %1
  br i1 %cmp, label %if.then, label %if.end

if.then:                                          ; preds = %entry
  store i8 0, ptr %agg.result, align 8, !alias.scope !125
  %subcode_.i.i.i.i = getelementptr inbounds i8, ptr %agg.result, i64 1
  store i8 0, ptr %subcode_.i.i.i.i, align 1, !alias.scope !125
  %sev_.i.i.i.i = getelementptr inbounds i8, ptr %agg.result, i64 2
  %state_.i.i.i.i = getelementptr inbounds i8, ptr %agg.result, i64 8
  store ptr null, ptr %state_.i.i.i.i, align 8, !alias.scope !125
  store i32 0, ptr %sev_.i.i.i.i, align 2, !alias.scope !125
  br label %return

if.end:                                           ; preds = %entry
  %base_ = getelementptr inbounds i8, ptr %this, i64 96
  %2 = load ptr, ptr %base_, align 8
  %sub.ptr.lhs.cast = ptrtoint ptr %1 to i64
  %sub.ptr.rhs.cast = ptrtoint ptr %2 to i64
  %sub.ptr.sub = sub i64 %sub.ptr.lhs.cast, %sub.ptr.rhs.cast
  %page_size_.i = getelementptr inbounds i8, ptr %this, i64 80
  %3 = load i64, ptr %page_size_.i, align 8
  %sub.not.i = sub i64 0, %3
  %sub2.i = and i64 %sub.ptr.sub, %sub.not.i
  %sub.ptr.lhs.cast5 = ptrtoint ptr %0 to i64
  %4 = xor i64 %sub.ptr.rhs.cast, -1
  %sub = add i64 %4, %sub.ptr.lhs.cast5
  %sub2.i5 = and i64 %sub, %sub.not.i
  store ptr %0, ptr %last_sync_, align 8
  %add.ptr = getelementptr inbounds i8, ptr %2, i64 %sub2.i
  %sub12 = sub i64 %3, %sub2.i
  %add = add i64 %sub12, %sub2.i5
  %call13 = tail call i32 @msync(ptr noundef %add.ptr, i64 noundef %add, i32 noundef 4)
  %cmp14 = icmp slt i32 %call13, 0
  br i1 %cmp14, label %if.then15, label %if.end20

if.then15:                                        ; preds = %if.end
  call void @_ZNSaIcEC1Ev(ptr noundef nonnull align 1 dereferenceable(1) %ref.tmp16) #25
  %call.i6 = invoke noundef ptr @_ZNSt7__cxx1112basic_stringIcSt11char_traitsIcESaIcEE13_M_local_dataEv(ptr noundef nonnull align 8 dereferenceable(32) %ref.tmp)
          to label %call.i.noexc unwind label %lpad

call.i.noexc:                                     ; preds = %if.then15
  invoke void @_ZNSt7__cxx1112basic_stringIcSt11char_traitsIcESaIcEE12_Alloc_hiderC1EPcRKS3_(ptr noundef nonnull align 8 dereferenceable(8) %ref.tmp, ptr noundef %call.i6, ptr noundef nonnull align 1 dereferenceable(1) %ref.tmp16)
          to label %.noexc unwind label %lpad

.noexc:                                           ; preds = %call.i.noexc
  invoke void @_ZNSt7__cxx1112basic_stringIcSt11char_traitsIcESaIcEE12_M_constructIPKcEEvT_S8_St20forward_iterator_tag(ptr noundef nonnull align 8 dereferenceable(32) %ref.tmp, ptr noundef nonnull @.str.36, ptr noundef nonnull getelementptr inbounds ([12 x i8], ptr @.str.36, i64 0, i64 11))
          to label %invoke.cont unwind label %lpad.i

lpad.i:                                           ; preds = %.noexc
  %5 = landingpad { ptr, i32 }
          cleanup
  call void @_ZNSaIcED2Ev(ptr noundef nonnull align 1 dereferenceable(1) %ref.tmp) #25
  br label %ehcleanup

invoke.cont:                                      ; preds = %.noexc
  %filename_ = getelementptr inbounds i8, ptr %this, i64 40
  %call17 = tail call ptr @__errno_location() #30
  %6 = load i32, ptr %call17, align 4
  invoke void @_ZN7rocksdb7IOErrorERKNSt7__cxx1112basic_stringIcSt11char_traitsIcESaIcEEES7_i(ptr sret(%"class.rocksdb::IOStatus") align 8 %agg.result, ptr noundef nonnull align 8 dereferenceable(32) %ref.tmp, ptr noundef nonnull align 8 dereferenceable(32) %filename_, i32 noundef %6)
          to label %invoke.cont19 unwind label %lpad18

invoke.cont19:                                    ; preds = %invoke.cont
  call void @_ZNSt7__cxx1112basic_stringIcSt11char_traitsIcESaIcEED1Ev(ptr noundef nonnull align 8 dereferenceable(32) %ref.tmp) #25
  call void @_ZNSaIcED1Ev(ptr noundef nonnull align 1 dereferenceable(1) %ref.tmp16) #25
  br label %return

lpad:                                             ; preds = %call.i.noexc, %if.then15
  %7 = landingpad { ptr, i32 }
          cleanup
  br label %ehcleanup

lpad18:                                           ; preds = %invoke.cont
  %8 = landingpad { ptr, i32 }
          cleanup
  call void @_ZNSt7__cxx1112basic_stringIcSt11char_traitsIcESaIcEED1Ev(ptr noundef nonnull align 8 dereferenceable(32) %ref.tmp) #25
  br label %ehcleanup

ehcleanup:                                        ; preds = %lpad, %lpad.i, %lpad18
  %.pn = phi { ptr, i32 } [ %8, %lpad18 ], [ %7, %lpad ], [ %5, %lpad.i ]
  call void @_ZNSaIcED1Ev(ptr noundef nonnull align 1 dereferenceable(1) %ref.tmp16) #25
  resume { ptr, i32 } %.pn

if.end20:                                         ; preds = %if.end
  store i8 0, ptr %agg.result, align 8, !alias.scope !128
  %subcode_.i.i.i.i7 = getelementptr inbounds i8, ptr %agg.result, i64 1
  store i8 0, ptr %subcode_.i.i.i.i7, align 1, !alias.scope !128
  %sev_.i.i.i.i8 = getelementptr inbounds i8, ptr %agg.result, i64 2
  %state_.i.i.i.i9 = getelementptr inbounds i8, ptr %agg.result, i64 8
  store ptr null, ptr %state_.i.i.i.i9, align 8, !alias.scope !128
  store i32 0, ptr %sev_.i.i.i.i8, align 2, !alias.scope !128
  br label %return

return:                                           ; preds = %if.end20, %invoke.cont19, %if.then
  ret void
}